target datalayout = "e-m:e-p270:32:32-p271:32:32-p272:64:64-i64:64-i128:128-f80:128-n8:16:32:64-S128"
target triple = "x86_64-pc-linux-gnu"

%struct.decoration = type { ptr, i32, i32, ptr }
%struct.object_id = type { [32 x i8], i32 }
%struct.object = type { i32, %struct.object_id }
%struct.obj_buffer = type { ptr, i64 }

@the_repository = external global ptr, align 8
@obj_decorate = internal global %struct.decoration zeroinitializer, align 8
@.str.30 = private unnamed_addr constant [21 x i8] c"object type mismatch\00", align 1
@.str.31 = private unnamed_addr constant [26 x i8] c"object of unexpected type\00", align 1
@.str.32 = private unnamed_addr constant [32 x i8] c"Whoops! Cannot find object '%s'\00", align 1
@.str.33 = private unnamed_addr constant [28 x i8] c"fsck error in packed object\00", align 1
@.str.34 = private unnamed_addr constant [33 x i8] c"Error on reachable objects of %s\00", align 1
@.str.35 = private unnamed_addr constant [26 x i8] c"failed to write object %s\00", align 1

; Function Attrs: inlinehint nounwind uwtable
define internal i32 @write_object_file(ptr noundef %0, i64 noundef %1, i32 noundef %2, ptr noundef %3) #3 {
  %5 = alloca ptr, align 8
  %6 = alloca i64, align 8
  %7 = alloca i32, align 4
  %8 = alloca ptr, align 8
  store ptr %0, ptr %5, align 8, !tbaa !45
  store i64 %1, ptr %6, align 8, !tbaa !16
  store i32 %2, ptr %7, align 4, !tbaa !4
  store ptr %3, ptr %8, align 8, !tbaa !93
  %9 = load ptr, ptr %5, align 8, !tbaa !45
  %10 = load i64, ptr %6, align 8, !tbaa !16
  %11 = load i32, ptr %7, align 4, !tbaa !4
  %12 = load ptr, ptr %8, align 8, !tbaa !93
  %13 = call i32 @write_object_file_flags(ptr noundef %9, i64 noundef %10, i32 noundef %11, ptr noundef %12, ptr noundef null, i32 noundef 0)
  ret i32 %13
}

; Function Attrs: nounwind uwtable
define internal void @write_cached_object(ptr noundef %0, ptr noundef %1) #0 {
  %3 = alloca ptr, align 8
  %4 = alloca ptr, align 8
  %5 = alloca %struct.object_id, align 4
  store ptr %0, ptr %3, align 8, !tbaa !92
  store ptr %1, ptr %4, align 8, !tbaa !103
  call void @llvm.lifetime.start.p0(i64 36, ptr %5) #10
  %6 = load ptr, ptr %4, align 8, !tbaa !103
  %7 = getelementptr inbounds nuw %struct.obj_buffer, ptr %6, i32 0, i32 0
  %8 = load ptr, ptr %7, align 8, !tbaa !105
  %9 = load ptr, ptr %4, align 8, !tbaa !103
  %10 = getelementptr inbounds nuw %struct.obj_buffer, ptr %9, i32 0, i32 1
  %11 = load i64, ptr %10, align 8, !tbaa !107
  %12 = load ptr, ptr %3, align 8, !tbaa !92
  %13 = load i32, ptr %12, align 4
  %14 = lshr i32 %13, 1
  %15 = and i32 %14, 7
  %16 = call i32 @write_object_file(ptr noundef %8, i64 noundef %11, i32 noundef %15, ptr noundef %5)
  %17 = icmp slt i32 %16, 0
  br i1 %17, label %18, label %22

18:                                               ; preds = %2
  %19 = load ptr, ptr %3, align 8, !tbaa !92
  %20 = getelementptr inbounds nuw %struct.object, ptr %19, i32 0, i32 1
  %21 = call ptr @oid_to_hex(ptr noundef %20)
  call void (ptr, ...) @die(ptr noundef @.str.35, ptr noundef %21) #12
  unreachable

22:                                               ; preds = %2
  %23 = load ptr, ptr %3, align 8, !tbaa !92
  %24 = load i32, ptr %23, align 4
  %25 = lshr i32 %24, 4
  %26 = or i32 %25, 2097152
  %27 = load i32, ptr %23, align 4
  %28 = and i32 %26, 268435455
  %29 = shl i32 %28, 4
  %30 = and i32 %27, 15
  %31 = or i32 %30, %29
  store i32 %31, ptr %23, align 4
  call void @llvm.lifetime.end.p0(i64 36, ptr %5) #10
  ret void
}

; Function Attrs: nounwind uwtable
define internal ptr @lookup_object_buffer(ptr noundef %0) #0 {
  %2 = alloca ptr, align 8
  store ptr %0, ptr %2, align 8, !tbaa !92
  %3 = load ptr, ptr %2, align 8, !tbaa !92
  %4 = call ptr @lookup_decoration(ptr noundef @obj_decorate, ptr noundef %3)
  ret ptr %4
}

; Function Attrs: nounwind uwtable
define internal i32 @check_object(ptr noundef %0, i32 noundef %1, ptr noundef %2, ptr noundef %3) #0 {
  %5 = alloca i32, align 4
  %6 = alloca ptr, align 8
  %7 = alloca i32, align 4
  %8 = alloca ptr, align 8
  %9 = alloca ptr, align 8
  %10 = alloca ptr, align 8
  %11 = alloca i32, align 4
  %12 = alloca i64, align 8
  %13 = alloca i32, align 4
  store ptr %0, ptr %6, align 8, !tbaa !92
  store i32 %1, ptr %7, align 4, !tbaa !4
  store ptr %2, ptr %8, align 8, !tbaa !45
  store ptr %3, ptr %9, align 8, !tbaa !110
  call void @llvm.lifetime.start.p0(i64 8, ptr %10) #10
  %14 = load ptr, ptr %6, align 8, !tbaa !92
  %15 = icmp ne ptr %14, null
  br i1 %15, label %17, label %16

16:                                               ; preds = %4
  store i32 1, ptr %5, align 4
  store i32 1, ptr %11, align 4
  br label %97

17:                                               ; preds = %4
  %18 = load ptr, ptr %6, align 8, !tbaa !92
  %19 = load i32, ptr %18, align 4
  %20 = lshr i32 %19, 4
  %21 = and i32 %20, 2097152
  %22 = icmp ne i32 %21, 0
  br i1 %22, label %23, label %24

23:                                               ; preds = %17
  store i32 0, ptr %5, align 4
  store i32 1, ptr %11, align 4
  br label %97

24:                                               ; preds = %17
  %25 = load i32, ptr %7, align 4, !tbaa !4
  %26 = icmp ne i32 %25, 8
  br i1 %26, label %27, label %35

27:                                               ; preds = %24
  %28 = load ptr, ptr %6, align 8, !tbaa !92
  %29 = load i32, ptr %28, align 4
  %30 = lshr i32 %29, 1
  %31 = and i32 %30, 7
  %32 = load i32, ptr %7, align 4, !tbaa !4
  %33 = icmp ne i32 %31, %32
  br i1 %33, label %34, label %35

34:                                               ; preds = %27
  call void (ptr, ...) @die(ptr noundef @.str.30) #12
  unreachable

35:                                               ; preds = %27, %24
  %36 = load ptr, ptr %6, align 8, !tbaa !92
  %37 = load i32, ptr %36, align 4
  %38 = lshr i32 %37, 4
  %39 = and i32 %38, 1048576
  %40 = icmp ne i32 %39, 0
  br i1 %40, label %66, label %41

41:                                               ; preds = %35
  call void @llvm.lifetime.start.p0(i64 8, ptr %12) #10
  call void @llvm.lifetime.start.p0(i64 4, ptr %13) #10
  %42 = load ptr, ptr @the_repository, align 8, !tbaa !13
  %43 = load ptr, ptr %6, align 8, !tbaa !92
  %44 = getelementptr inbounds nuw %struct.object, ptr %43, i32 0, i32 1
  %45 = call i32 @oid_object_info(ptr noundef %42, ptr noundef %44, ptr noundef %12)
  store i32 %45, ptr %13, align 4, !tbaa !4
  %46 = load i32, ptr %13, align 4, !tbaa !4
  %47 = load ptr, ptr %6, align 8, !tbaa !92
  %48 = load i32, ptr %47, align 4
  %49 = lshr i32 %48, 1
  %50 = and i32 %49, 7
  %51 = icmp ne i32 %46, %50
  br i1 %51, label %55, label %52

52:                                               ; preds = %41
  %53 = load i32, ptr %13, align 4, !tbaa !4
  %54 = icmp sle i32 %53, 0
  br i1 %54, label %55, label %56

55:                                               ; preds = %52, %41
  call void (ptr, ...) @die(ptr noundef @.str.31) #12
  unreachable

56:                                               ; preds = %52
  %57 = load ptr, ptr %6, align 8, !tbaa !92
  %58 = load i32, ptr %57, align 4
  %59 = lshr i32 %58, 4
  %60 = or i32 %59, 2097152
  %61 = load i32, ptr %57, align 4
  %62 = and i32 %60, 268435455
  %63 = shl i32 %62, 4
  %64 = and i32 %61, 15
  %65 = or i32 %64, %63
  store i32 %65, ptr %57, align 4
  store i32 0, ptr %5, align 4
  store i32 1, ptr %11, align 4
  call void @llvm.lifetime.end.p0(i64 4, ptr %13) #10
  call void @llvm.lifetime.end.p0(i64 8, ptr %12) #10
  br label %97

66:                                               ; preds = %35
  %67 = load ptr, ptr %6, align 8, !tbaa !92
  %68 = call ptr @lookup_object_buffer(ptr noundef %67)
  store ptr %68, ptr %10, align 8, !tbaa !103
  %69 = load ptr, ptr %10, align 8, !tbaa !103
  %70 = icmp ne ptr %69, null
  br i1 %70, label %75, label %71

71:                                               ; preds = %66
  %72 = load ptr, ptr %6, align 8, !tbaa !92
  %73 = getelementptr inbounds nuw %struct.object, ptr %72, i32 0, i32 1
  %74 = call ptr @oid_to_hex(ptr noundef %73)
  call void (ptr, ...) @die(ptr noundef @.str.32, ptr noundef %74) #12
  unreachable

75:                                               ; preds = %66
  %76 = load ptr, ptr %6, align 8, !tbaa !92
  %77 = load ptr, ptr %10, align 8, !tbaa !103
  %78 = getelementptr inbounds nuw %struct.obj_buffer, ptr %77, i32 0, i32 0
  %79 = load ptr, ptr %78, align 8, !tbaa !105
  %80 = load ptr, ptr %10, align 8, !tbaa !103
  %81 = getelementptr inbounds nuw %struct.obj_buffer, ptr %80, i32 0, i32 1
  %82 = load i64, ptr %81, align 8, !tbaa !107
  %83 = call i32 @fsck_object(ptr noundef %76, ptr noundef %79, i64 noundef %82, ptr noundef @fsck_options)
  %84 = icmp ne i32 %83, 0
  br i1 %84, label %85, label %86

85:                                               ; preds = %75
  call void (ptr, ...) @die(ptr noundef @.str.33) #12
  unreachable

86:                                               ; preds = %75
  store ptr @check_object, ptr @fsck_options, align 8, !tbaa !112
  %87 = load ptr, ptr %6, align 8, !tbaa !92
  %88 = call i32 @fsck_walk(ptr noundef %87, ptr noundef null, ptr noundef @fsck_options)
  %89 = icmp ne i32 %88, 0
  br i1 %89, label %90, label %94

90:                                               ; preds = %86
  %91 = load ptr, ptr %6, align 8, !tbaa !92
  %92 = getelementptr inbounds nuw %struct.object, ptr %91, i32 0, i32 1
  %93 = call ptr @oid_to_hex(ptr noundef %92)
  call void (ptr, ...) @die(ptr noundef @.str.34, ptr noundef %93) #12
  unreachable

94:                                               ; preds = %86
  %95 = load ptr, ptr %6, align 8, !tbaa !92
  %96 = load ptr, ptr %10, align 8, !tbaa !103
  call void @write_cached_object(ptr noundef %95, ptr noundef %96)
  store i32 0, ptr %5, align 4
  store i32 1, ptr %11, align 4
  br label %97

97:                                               ; preds = %94, %56, %23, %16
  call void @llvm.lifetime.end.p0(i64 8, ptr %10) #10
  %98 = load i32, ptr %5, align 4
  ret i32 %98
}