; Function Attrs: nounwind uwtable
define internal range(i32 0, 2) i32 @check_object(ptr noundef %0, i32 noundef %1, ptr readnone captures(none) %2, ptr readnone captures(none) %3) #0 {
  %5 = alloca %struct.object_id, align 4
  %6 = alloca i64, align 8
  %.not = icmp eq ptr %0, null
  br i1 %.not, label %56, label %7

7:                                                ; preds = %4
  %8 = load i32, ptr %0, align 4
  %9 = and i32 %8, 33554432
  %.not25 = icmp eq i32 %9, 0
  br i1 %.not25, label %10, label %56

10:                                               ; preds = %7
  %.not26 = icmp eq i32 %1, 8
  br i1 %.not26, label %15, label %11

11:                                               ; preds = %10
  %12 = lshr i32 %8, 1
  %13 = and i32 %12, 7
  %.not27 = icmp eq i32 %13, %1
  br i1 %.not27, label %15, label %14

14:                                               ; preds = %11
  tail call void (ptr, ...) @die(ptr noundef nonnull @.str.30) #16
  unreachable

15:                                               ; preds = %11, %10
  %16 = and i32 %8, 16777216
  %.not28 = icmp eq i32 %16, 0
  br i1 %.not28, label %17, label %29

17:                                               ; preds = %15
  call void @llvm.lifetime.start.p0(i64 8, ptr nonnull %6) #14
  %18 = load ptr, ptr @the_repository, align 8, !tbaa !4
  %19 = getelementptr inbounds nuw i8, ptr %0, i64 4
  %20 = call i32 @oid_object_info(ptr noundef %18, ptr noundef nonnull %19, ptr noundef nonnull %6) #14
  %21 = load i32, ptr %0, align 4
  %22 = lshr i32 %21, 1
  %23 = and i32 %22, 7
  %24 = icmp ne i32 %20, %23
  %25 = icmp slt i32 %20, 1
  %or.cond = or i1 %25, %24
  br i1 %or.cond, label %26, label %27

26:                                               ; preds = %17
  call void (ptr, ...) @die(ptr noundef nonnull @.str.31) #16
  unreachable

27:                                               ; preds = %17
  %28 = or i32 %21, 33554432
  store i32 %28, ptr %0, align 4
  call void @llvm.lifetime.end.p0(i64 8, ptr nonnull %6) #14
  br label %56

29:                                               ; preds = %15
  %30 = tail call ptr @lookup_decoration(ptr noundef nonnull @obj_decorate, ptr noundef nonnull %0) #14
  %.not29 = icmp eq ptr %30, null
  br i1 %.not29, label %31, label %34

31:                                               ; preds = %29
  %32 = getelementptr inbounds nuw i8, ptr %0, i64 4
  %33 = tail call ptr @oid_to_hex(ptr noundef nonnull %32) #14
  tail call void (ptr, ...) @die(ptr noundef nonnull @.str.32, ptr noundef %33) #16
  unreachable

34:                                               ; preds = %29
  %35 = load ptr, ptr %30, align 8, !tbaa !86
  %36 = getelementptr inbounds nuw i8, ptr %30, i64 8
  %37 = load i64, ptr %36, align 8, !tbaa !88
  %38 = tail call i32 @fsck_object(ptr noundef nonnull %0, ptr noundef %35, i64 noundef %37, ptr noundef nonnull @fsck_options) #14
  %.not30 = icmp eq i32 %38, 0
  br i1 %.not30, label %40, label %39

39:                                               ; preds = %34
  tail call void (ptr, ...) @die(ptr noundef nonnull @.str.33) #16
  unreachable

40:                                               ; preds = %34
  store ptr @check_object, ptr @fsck_options, align 8, !tbaa !89
  %41 = tail call i32 @fsck_walk(ptr noundef nonnull %0, ptr noundef null, ptr noundef nonnull @fsck_options) #14
  %.not31 = icmp eq i32 %41, 0
  br i1 %.not31, label %45, label %42

42:                                               ; preds = %40
  %43 = getelementptr inbounds nuw i8, ptr %0, i64 4
  %44 = tail call ptr @oid_to_hex(ptr noundef nonnull %43) #14
  tail call void (ptr, ...) @die(ptr noundef nonnull @.str.34, ptr noundef %44) #16
  unreachable

45:                                               ; preds = %40
  %.val = load ptr, ptr %30, align 8, !tbaa !86
  %.val32 = load i64, ptr %36, align 8, !tbaa !88
  call void @llvm.lifetime.start.p0(i64 36, ptr nonnull %5) #14
  %46 = load i32, ptr %0, align 4
  %47 = lshr i32 %46, 1
  %48 = and i32 %47, 7
  %49 = call i32 @write_object_file_flags(ptr noundef %.val, i64 noundef %.val32, i32 noundef %48, ptr noundef nonnull %5, ptr noundef null, i32 noundef 0) #14
  %50 = icmp slt i32 %49, 0
  br i1 %50, label %51, label %write_cached_object.exit

51:                                               ; preds = %45
  %52 = getelementptr inbounds nuw i8, ptr %0, i64 4
  %53 = call ptr @oid_to_hex(ptr noundef nonnull %52) #14
  call void (ptr, ...) @die(ptr noundef nonnull @.str.35, ptr noundef %53) #16
  unreachable

write_cached_object.exit:                         ; preds = %45
  %54 = load i32, ptr %0, align 4
  %55 = or i32 %54, 33554432
  store i32 %55, ptr %0, align 4
  call void @llvm.lifetime.end.p0(i64 36, ptr nonnull %5) #14
  br label %56

56:                                               ; preds = %7, %4, %write_cached_object.exit, %27
  %.0 = phi i32 [ 0, %write_cached_object.exit ], [ 0, %27 ], [ 1, %4 ], [ 0, %7 ]
  ret i32 %.0
}